(dp0
S'control'
p1
(dp2
S'xyYqXBEp0k'
p3
(dp4
S'trigrams'
p5
S'284.29126518'
p6
sS'unigrams'
p7
S'285.010001963'
p8
sS'bigrams'
p9
S'962.787357943'
p10
ssS'gEnjmX'
p11
(dp12
g5
S'2013.71905764'
p13
sg7
S'889.954107882'
p14
sg9
S'13326.4649888'
p15
ssS'sq24HfcN3u'
p16
(dp17
g5
S'812.368650493'
p18
sg7
S'1422.14534928'
p19
sg9
S'10673.9602434'
p20
ssS'iQAEvwou6mB'
p21
(dp22
g5
S'2471.97767945'
p23
sg7
S'1094.32375671'
p24
sg9
S'16976.6247185'
p25
ssS'qhFO5DM8'
p26
(dp27
g5
S'956.632908428'
p28
sg7
S'724.548487947'
p29
sg9
S'6620.8943783'
p30
ssS'cD1ky1p0WKII'
p31
(dp32
g5
S'125.308736623'
p33
sg7
S'2734.64025868'
p34
sg9
S'1394.08430886'
p35
ssS'I4iWXQ_UD'
p36
(dp37
g5
S'721.104015353'
p38
sg7
S'1538.43562011'
p39
sg9
S'13105.8926217'
p40
ssS'g9_OxarnRqOAUn'
p41
(dp42
g5
S'60016.1129999'
p43
sg7
S'2260.57925487'
p44
sg9
S'55181.8039843'
p45
ssS'tEiy9TJHjW3'
p46
(dp47
g5
S'7589.06667001'
p48
sg7
S'846.03433399'
p49
sg9
S'20366.9980934'
p50
ssS'tFtBExRJBk'
p51
(dp52
g5
S'4058.60559827'
p53
sg7
S'877.533807691'
p54
sg9
S'22536.237552'
p55
ssS'lStXf77DFFOqMd3'
p56
(dp57
g5
S'332.103969668'
p58
sg7
S'848.02048186'
p59
sg9
S'4889.04434838'
p60
ssS'jq_clN3FEX'
p61
(dp62
g5
S'1593.63525641'
p63
sg7
S'1454.34673392'
p64
sg9
S'11435.223856'
p65
ssS'wf8lU7nil9B_'
p66
(dp67
g5
S'8026.39402952'
p68
sg7
S'1639.02044541'
p69
sg9
S'11281.7896399'
p70
ssS'fFRVeo1I'
p71
(dp72
g5
S'1051.02584741'
p73
sg7
S'952.172327119'
p74
sg9
S'8629.47893684'
p75
ssS'tXiQomcH64W3'
p76
(dp77
g5
S'2181.69742108'
p78
sg7
S'584.790278879'
p79
sg9
S'6944.32476778'
p80
ssS'dfHWc2_qwC3NDCK'
p81
(dp82
g5
S'1333.77522578'
p83
sg7
S'755.7613127'
p84
sg9
S'4569.51852283'
p85
ssS'l4LbQ_rAPqo2wp'
p86
(dp87
g5
S'160472.553991'
p88
sg7
S'11304.94702'
p89
sg9
S'53427.8512626'
p90
ssS'qhV6DmemqXKprwU'
p91
(dp92
g5
S'4519.6724803'
p93
sg7
S'1212.03481186'
p94
sg9
S'31689.9129533'
p95
ssS'wVyVdyXBJi1s'
p96
(dp97
g5
S'9844.8087839'
p98
sg7
S'886.483312921'
p99
sg9
S'20901.7674968'
p100
ssS'o4d_ZMCaPR669'
p101
(dp102
g5
S'1205.29172572'
p103
sg7
S'986.095978235'
p104
sg9
S'9853.86782596'
p105
ssS'hfchSKPX25emwy'
p106
(dp107
g5
S'2088.45383367'
p108
sg7
S'935.122689202'
p109
sg9
S'23853.4936997'
p110
ssS'ge9ua7b'
p111
(dp112
g5
S'4728.12528757'
p113
sg7
S'1330.89922493'
p114
sg9
S'13310.8398828'
p115
ssS'f5ndxWrZKIE'
p116
(dp117
g5
S'272.212300616'
p118
sg7
S'1528.9819997'
p119
sg9
S'8160.66437267'
p120
ssS'q659DpeVQKNpP'
p121
(dp122
g5
S'17785.6096168'
p123
sg7
S'1169.39239965'
p124
sg9
S'14057.4707423'
p125
ssS'SZVNvirefQ'
p126
(dp127
g5
S'654.430503442'
p128
sg7
S'1390.05893266'
p129
sg9
S'7151.870875'
p130
ssS'jyzUXkRYN'
p131
(dp132
g5
S'370.275377487'
p133
sg7
S'1602.98849313'
p134
sg9
S'5965.53117685'
p135
ssS'fGlr0YAbXbu7'
p136
(dp137
g5
S'2.16520990758'
p138
sg7
S'1142.95090609'
p139
sg9
S'17.9382894826'
p140
ssS'hAYtV3a'
p141
(dp142
g5
S'642.454319449'
p143
sg7
S'1258.85678477'
p144
sg9
S'10710.1267873'
p145
ssS'jNrMqx8XNTHm5K'
p146
(dp147
g5
S'862.357536182'
p148
sg7
S'1411.13457269'
p149
sg9
S'11592.4286248'
p150
ssS'g336FaT2YhXw'
p151
(dp152
g5
S'611.498326094'
p153
sg7
S'1056.85387624'
p154
sg9
S'6594.17729281'
p155
ssS'wizae58MiTmGe'
p156
(dp157
g5
S'243.350393051'
p158
sg7
S'1393.37115879'
p159
sg9
S'9622.44909992'
p160
ssS'ibTZjZXzX'
p161
(dp162
g5
S'5709.48618104'
p163
sg7
S'729.938595839'
p164
sg9
S'9243.05063748'
p165
ssS'jtTIHLIvgGACAOL'
p166
(dp167
g5
S'51769.1983287'
p168
sg7
S'1498.35956481'
p169
sg9
S'37523.263666'
p170
ssS'ddpLPfmBUhE8'
p171
(dp172
g5
S'16048221.198'
p173
sg7
S'4706203.28471'
p174
sg9
S'13070194.3405'
p175
ssS'lYUYC0uJF19Ka'
p176
(dp177
g5
S'155.678932633'
p178
sg7
S'5415.33303376'
p179
sg9
S'2027.41650162'
p180
ssS'sDsjR2Vs'
p181
(dp182
g5
S'110.050749095'
p183
sg7
S'2031.70468649'
p184
sg9
S'5107.04090631'
p185
ssS'dMRTIPTVKC0FRR'
p186
(dp187
g5
S'3265.95030168'
p188
sg7
S'989.420967177'
p189
sg9
S'15701.2870106'
p190
ssS'RtswG0wspvBoC'
p191
(dp192
g5
S'1297.89439225'
p193
sg7
S'1942.7721106'
p194
sg9
S'6789.90840253'
p195
ssS'tNkY83vbE'
p196
(dp197
g5
S'1006.97587563'
p198
sg7
S'974.242138033'
p199
sg9
S'8432.36468282'
p200
ssS'nxLPgTw2lg'
p201
(dp202
g5
S'23900.2557664'
p203
sg7
S'559.046911282'
p204
sg9
S'17748.5614622'
p205
ssS'iM_uxYt'
p206
(dp207
g5
S'330.407390493'
p208
sg7
S'1586.13698835'
p209
sg9
S'5415.85464012'
p210
ssS'jVHKJGZ'
p211
(dp212
g5
S'24675.4367724'
p213
sg7
S'832.394323585'
p214
sg9
S'34773.2347655'
p215
ssS'hzOAn1MqNd'
p216
(dp217
g5
S'42.3732787916'
p218
sg7
S'3553.43534537'
p219
sg9
S'1930.80399848'
p220
ssS'xXLQ_F27UU8XEM'
p221
(dp222
g5
S'219.655553022'
p223
sg7
S'1357.0453952'
p224
sg9
S'8038.63190267'
p225
ssS'g4UG1YQEnmo'
p226
(dp227
g5
S'10526.3020547'
p228
sg7
S'1054.104817'
p229
sg9
S'23523.8462203'
p230
ssS'uVsKRmP4jDp'
p231
(dp232
g5
S'276.189447773'
p233
sg7
S'724.087426994'
p234
sg9
S'2775.86844465'
p235
ssS'gdcPCRZS1KRaNEl'
p236
(dp237
g5
S'3460.91830846'
p238
sg7
S'968.379711469'
p239
sg9
S'19223.6550978'
p240
ssS'vuXgijpIg'
p241
(dp242
g5
S'310.773036899'
p243
sg7
S'1481.19422164'
p244
sg9
S'7326.56424117'
p245
ssS'meYmBMa'
p246
(dp247
g5
S'763.879067724'
p248
sg7
S'961.733603503'
p249
sg9
S'8699.52018801'
p250
ssS'ldLp3tX6WwVoYA'
p251
(dp252
g5
S'1524.73211769'
p253
sg7
S'935.439666587'
p254
sg9
S'14775.8194659'
p255
ssS'dybfWfXJkjMWp6m'
p256
(dp257
g5
S'1305.23931405'
p258
sg7
S'820.778249373'
p259
sg9
S'7345.64186379'
p260
ssS'pFa_fJWIYmn26'
p261
(dp262
g5
S'1342.97602384'
p263
sg7
S'1494.58871328'
p264
sg9
S'18375.636591'
p265
ssS'rQInjjREosu'
p266
(dp267
g5
S'1341.93358207'
p268
sg7
S'1251.79041701'
p269
sg9
S'10020.2442144'
p270
ssS'wykBSRFBt'
p271
(dp272
g5
S'907.377275907'
p273
sg7
S'2158.60386325'
p274
sg9
S'5953.79931267'
p275
ssS'koANc79xbaU'
p276
(dp277
g5
S'5236.93455063'
p278
sg7
S'727.964219105'
p279
sg9
S'10522.5216043'
p280
ssS'hZJVerES'
p281
(dp282
g5
S'774.485653688'
p283
sg7
S'1447.22478104'
p284
sg9
S'13625.9364045'
p285
ssS'fsW5dXZGGIQEs0'
p286
(dp287
g5
S'1515.69031351'
p288
sg7
S'1230.52266471'
p289
sg9
S'12377.2724492'
p290
ssS'u98bUzGHLXgXO4S'
p291
(dp292
g5
S'8456.66559694'
p293
sg7
S'1095.35733913'
p294
sg9
S'23800.8618104'
p295
ssS'fAa1yL'
p296
(dp297
g5
S'10416958.0675'
p298
sg7
S'551879.728575'
p299
sg9
S'6686682.51113'
p300
ssS'x5SMTJGkkeDi'
p301
(dp302
g5
S'6337.73447745'
p303
sg7
S'907.761604184'
p304
sg9
S'18798.5163454'
p305
ssS'm4BlcVeCGQo'
p306
(dp307
g5
S'1741.16602781'
p308
sg7
S'1474.66576228'
p309
sg9
S'20203.5254212'
p310
ssS'xY_hl3ftgFJ6'
p311
(dp312
g5
S'1396.5086334'
p313
sg7
S'957.935371988'
p314
sg9
S'7880.76936157'
p315
ssS'dRKq_MPXqfR3u0'
p316
(dp317
g5
S'2735.88518655'
p318
sg7
S'951.396287482'
p319
sg9
S'15561.7227005'
p320
ssS'vl0z1u62IL7Ncl'
p321
(dp322
g5
S'1048.52626918'
p323
sg7
S'767.243544485'
p324
sg9
S'7172.78230919'
p325
ssS'r9cvqC_bCK'
p326
(dp327
g5
S'1883.97905483'
p328
sg7
S'1043.70960122'
p329
sg9
S'13274.5178084'
p330
ssS'bgfywlOA6'
p331
(dp332
g5
S'566.41400907'
p333
sg7
S'1205.64535641'
p334
sg9
S'8941.42172465'
p335
ssS'wrCJ0vrCrn5S5C'
p336
(dp337
g5
S'20423.3006756'
p338
sg7
S'3112.78116743'
p339
sg9
S'19248.1065939'
p340
ssS'kJOrxGDpuWsjI'
p341
(dp342
g5
S'523.462542888'
p343
sg7
S'1712.82196921'
p344
sg9
S'8768.96304156'
p345
ssS'bRahtGwx06RIgV'
p346
(dp347
g5
S'7394.17738122'
p348
sg7
S'673.26765908'
p349
sg9
S'15229.0955761'
p350
ssS'veWx'
p351
(dp352
g5
S'241.957522362'
p353
sg7
S'1666.11659487'
p354
sg9
S'6594.27079983'
p355
ssS'oKnBkyygjJeT4OZ'
p356
(dp357
g5
S'21779.7085243'
p358
sg7
S'2728.74647213'
p359
sg9
S'34799.9092049'
p360
ssS'k0eeWvWBD'
p361
(dp362
g5
S'8920.57433498'
p363
sg7
S'1002.62867819'
p364
sg9
S'25813.6678786'
p365
ssS'jpA80RCT8ljL9e'
p366
(dp367
g5
S'7142.50510714'
p368
sg7
S'1046.5107331'
p369
sg9
S'20043.3751893'
p370
ssS'f5Q6F6wbjkS7eB'
p371
(dp372
g5
S'2023.39998026'
p373
sg7
S'1167.41774933'
p374
sg9
S'12216.2703682'
p375
ssS'duTyIJwiyzO'
p376
(dp377
g5
S'4659.70739331'
p378
sg7
S'893.13045549'
p379
sg9
S'9539.97386185'
p380
ssS'eEfme1LGf2z'
p381
(dp382
g5
S'711808.155726'
p383
sg7
S'9085.88129517'
p384
sg9
S'300380.415265'
p385
ssS'jfiiez8DlFjqifd'
p386
(dp387
g5
S'608.571147446'
p388
sg7
S'938.831015572'
p389
sg9
S'8789.31497274'
p390
ssS'fvSIo2aurRj'
p391
(dp392
g5
S'1284.62806225'
p393
sg7
S'1463.42073192'
p394
sg9
S'16969.034968'
p395
ssS'f2qgfAlnfxiB7qN'
p396
(dp397
g5
S'228.737569712'
p398
sg7
S'1413.11859332'
p399
sg9
S'6117.79805137'
p400
ssS'dg39qWQ0x8bYHtr'
p401
(dp402
g5
S'1383.27020088'
p403
sg7
S'1137.16762467'
p404
sg9
S'17324.486658'
p405
ssS'lkVUsvC'
p406
(dp407
g5
S'11.2510335492'
p408
sg7
S'275.964092662'
p409
sg9
S'94.6325210342'
p410
ssS'h6uymsrX6mbFlh'
p411
(dp412
g5
S'4884.60143818'
p413
sg7
S'1316.8442807'
p414
sg9
S'16744.0791604'
p415
ssS'qlKI02RO5'
p416
(dp417
g5
S'1392.03932563'
p418
sg7
S'1297.93781785'
p419
sg9
S'8952.2977738'
p420
ssS'eHGzDKHpMI'
p421
(dp422
g5
S'140.159157432'
p423
sg7
S'4424.06847921'
p424
sg9
S'1309.69085699'
p425
ssS'uYicBamGKrn'
p426
(dp427
g5
S'1983.54946883'
p428
sg7
S'1006.19085749'
p429
sg9
S'12732.2790433'
p430
ssS'rrHJMC'
p431
(dp432
g5
S'1995.902817'
p433
sg7
S'1312.4397918'
p434
sg9
S'12315.5013503'
p435
ssS'rkaQSdk_xTqaz1'
p436
(dp437
g5
S'236164.91331'
p438
sg7
S'2602.92068699'
p439
sg9
S'91608.2755533'
p440
ssS'kOLV4M'
p441
(dp442
g5
S'290.708759733'
p443
sg7
S'1496.24165786'
p444
sg9
S'6159.37751028'
p445
ssS'rTAtdSKpn0ibs'
p446
(dp447
g5
S'930298.670147'
p448
sg7
S'6734.05293239'
p449
sg9
S'323657.916577'
p450
ssS'uclv3vj26Htvx'
p451
(dp452
g5
S'1531.61495214'
p453
sg7
S'1157.15937135'
p454
sg9
S'19180.010592'
p455
ssS'v5Ct2qy5iTwzgeM'
p456
(dp457
g5
S'309.202537598'
p458
sg7
S'1452.46877015'
p459
sg9
S'10717.5931722'
p460
ssS'bLGuM9uvR3Ogqo4'
p461
(dp462
g5
S'232.239990374'
p463
sg7
S'1430.61899467'
p464
sg9
S'5391.15616775'
p465
ssS'rJfaWxNGeU'
p466
(dp467
g5
S'1671.19658589'
p468
sg7
S'964.851453428'
p469
sg9
S'11106.7106244'
p470
ssS'k2dEdXL'
p471
(dp472
g5
S'4191.81257573'
p473
sg7
S'1346.97118733'
p474
sg9
S'19949.205365'
p475
ssS'scEm_uvwbKCo8b'
p476
(dp477
g5
S'5040.0477514'
p478
sg7
S'1033.42493956'
p479
sg9
S'16718.4032278'
p480
ssS'7VbnLI9dA'
p481
(dp482
g5
S'506.503363219'
p483
sg7
S'727.470918001'
p484
sg9
S'6907.890642'
p485
ssS'o96a5AxEzogl8p'
p486
(dp487
g5
S'3954.96651678'
p488
sg7
S'965.116470999'
p489
sg9
S'21039.124451'
p490
ssS'mOELHlQ4gFwNOEt'
p491
(dp492
g5
S'6353983.14583'
p493
sg7
S'270917.613482'
p494
sg9
S'3010551.47891'
p495
ssS'r6BNc5VJDHLco8D'
p496
(dp497
g5
S'25.2703915262'
p498
sg7
S'1036.68112407'
p499
sg9
S'399.412302731'
p500
ssS'szH3rmr6ysC'
p501
(dp502
g5
S'1047.99327412'
p503
sg7
S'777.587150573'
p504
sg9
S'9062.44393852'
p505
ssS'oHuBNnwz'
p506
(dp507
g5
S'237.8668563'
p508
sg7
S'1926.6059333'
p509
sg9
S'5099.60997349'
p510
ssS'dQVB6A9h0_KryR'
p511
(dp512
g5
S'332440.593874'
p513
sg7
S'2499.99424737'
p514
sg9
S'81122.2107613'
p515
ssS't_Q4earc4mshOH'
p516
(dp517
g5
S'1071.39712629'
p518
sg7
S'741.560140585'
p519
sg9
S'7513.60611338'
p520
ssS'qq17HLnA'
p521
(dp522
g5
S'1669.67752365'
p523
sg7
S'1076.70409312'
p524
sg9
S'15246.8793624'
p525
ssS'xlqXUr9VIFwMh'
p526
(dp527
g5
S'415.259335893'
p528
sg7
S'841.035846513'
p529
sg9
S'3366.08461382'
p530
ssS'cHVnuIJXPd3'
p531
(dp532
g5
S'70.8015499594'
p533
sg7
S'1950.39936938'
p534
sg9
S'1393.64897639'
p535
ssS'pfNV4m9ZJyKG'
p536
(dp537
g5
S'8083.71847825'
p538
sg7
S'5510.24822939'
p539
sg9
S'14412.9921531'
p540
ssS'cAX9NIcworqhMwk'
p541
(dp542
g5
S'1815.74666719'
p543
sg7
S'975.263475838'
p544
sg9
S'15221.7525846'
p545
ssS'd2PJ4eiYZ'
p546
(dp547
g5
S'1527.05115612'
p548
sg7
S'590.137085807'
p549
sg9
S'6009.13706451'
p550
ssS'fK2wqVJGT54gvuS'
p551
(dp552
g5
S'78007.8671098'
p553
sg7
S'3474.76034837'
p554
sg9
S'113106.68477'
p555
ssS'q6BmRqY8'
p556
(dp557
g5
S'77.7832433759'
p558
sg7
S'1097.00690752'
p559
sg9
S'1839.30269687'
p560
ssS'lcbgxhwH'
p561
(dp562
g5
S'225.022501158'
p563
sg7
S'1556.78773355'
p564
sg9
S'6376.30314863'
p565
ssS'xw557gPj'
p566
(dp567
g5
S'4022.78973797'
p568
sg7
S'907.760381813'
p569
sg9
S'14794.8658844'
p570
ssS'lqUk0B5gSO7xhrB'
p571
(dp572
g5
S'248.487646294'
p573
sg7
S'1840.25716484'
p574
sg9
S'5283.44566643'
p575
ssS'iwmsilgt0'
p576
(dp577
g5
S'3526.98240791'
p578
sg7
S'863.398729892'
p579
sg9
S'17799.9972927'
p580
ssS'oiUjFDYis'
p581
(dp582
g5
S'2867.94107755'
p583
sg7
S'1203.95946979'
p584
sg9
S'20662.1562194'
p585
ssS'pU4SxhlN6'
p586
(dp587
g5
S'870.585744558'
p588
sg7
S'942.547211065'
p589
sg9
S'8341.79844479'
p590
ssS'gs0oICfYwquGoVz'
p591
(dp592
g5
S'4321.26101486'
p593
sg7
S'1049.30124998'
p594
sg9
S'15672.8095483'
p595
ssS'qr7E3hhIRDA'
p596
(dp597
g5
S'4124.53207141'
p598
sg7
S'1218.28744047'
p599
sg9
S'19575.3622538'
p600
ssS'r5KBXKHgz4A'
p601
(dp602
g5
S'4514.2872854'
p603
sg7
S'903.737633909'
p604
sg9
S'12267.3122019'
p605
ssS'ijar9VeLK4'
p606
(dp607
g5
S'3449.0695703'
p608
sg7
S'1010.81893897'
p609
sg9
S'20792.0837089'
p610
ssS'brLupKkBSjAvYfj'
p611
(dp612
g5
S'2414.66955235'
p613
sg7
S'1082.03670488'
p614
sg9
S'13475.5478938'
p615
ssS'o_2CP5H6tSIq'
p616
(dp617
g5
S'4165.53309695'
p618
sg7
S'880.581934177'
p619
sg9
S'12709.5204078'
p620
ssS'bwYxTvd6pj'
p621
(dp622
g5
S'3902.51309238'
p623
sg7
S'4050.19308505'
p624
sg9
S'9697.74971437'
p625
ssS'p4YAU5efy'
p626
(dp627
g5
S'40752.7827055'
p628
sg7
S'1583.39121705'
p629
sg9
S'9025.7543013'
p630
ssS'xiVQl71NdsN'
p631
(dp632
g5
S'12543.4495426'
p633
sg7
S'1121.07363948'
p634
sg9
S'30823.9317978'
p635
ssS'cksHQYVrFx'
p636
(dp637
g5
S'169.778118141'
p638
sg7
S'2053.16747449'
p639
sg9
S'2761.25041655'
p640
ssS'dSbrVC1yK1'
p641
(dp642
g5
S'504.136500632'
p643
sg7
S'1206.28321677'
p644
sg9
S'7247.16126403'
p645
ssS'bebChK7PskxB'
p646
(dp647
g5
S'5648296.79179'
p648
sg7
S'135384.400129'
p649
sg9
S'3031587.69067'
p650
ssS'oWgvq_17Z'
p651
(dp652
g5
S'982.067121961'
p653
sg7
S'1071.98694497'
p654
sg9
S'9386.92392459'
p655
ssS'oFzVcyImHcHmCci'
p656
(dp657
g5
S'1812.42462446'
p658
sg7
S'1074.2888393'
p659
sg9
S'10547.0557183'
p660
ssS'cVMSpkU44YuFaiO'
p661
(dp662
g5
S'2741.39994031'
p663
sg7
S'1258.98888406'
p664
sg9
S'18855.4715464'
p665
ssS'wvYJS'
p666
(dp667
g5
S'1115.78847455'
p668
sg7
S'933.658387714'
p669
sg9
S'14454.081848'
p670
ssS'v_CYAAKqoA'
p671
(dp672
g5
S'1015.3765523'
p673
sg7
S'1154.82791492'
p674
sg9
S'10283.2143239'
p675
ssS'rm8V3WUBLNPcNd'
p676
(dp677
g5
S'18800.6835177'
p678
sg7
S'852.269517164'
p679
sg9
S'16824.8590546'
p680
ssS'iLzKpKGGrSvlh'
p681
(dp682
g5
S'194.616700854'
p683
sg7
S'807.017333792'
p684
sg9
S'7827.77693972'
p685
ssS'rqH6uvD9RGX'
p686
(dp687
g5
S'650.22329835'
p688
sg7
S'1464.64010236'
p689
sg9
S'9206.26323782'
p690
sssS'schizophrenia'
p691
(dp692
S'jKh48a2sGpRjq9w'
p693
(dp694
g5
S'1519.82304681'
p695
sg7
S'1343.99313186'
p696
sg9
S'21157.9583403'
p697
ssS'qwtg184xmOxmeMj'
p698
(dp699
g5
S'3077.36813764'
p700
sg7
S'841.028293133'
p701
sg9
S'28184.1760126'
p702
ssS'leAuT8UVoh'
p703
(dp704
g5
S'843.483388166'
p705
sg7
S'1046.41192881'
p706
sg9
S'8050.89331371'
p707
ssS'eKzjEwUj0h'
p708
(dp709
g5
S'400.908083928'
p710
sg7
S'1075.6023742'
p711
sg9
S'5466.31143944'
p712
ssS'wpHaf0yStnI'
p713
(dp714
g5
S'2107.15654167'
p715
sg7
S'1049.69826085'
p716
sg9
S'15911.5621925'
p717
ssS'nINcNi304N'
p718
(dp719
g5
S'729.042820572'
p720
sg7
S'1445.29475388'
p721
sg9
S'18222.1295174'
p722
ssS'xVhkxgncICyjq2G'
p723
(dp724
g5
S'242.821906629'
p725
sg7
S'1057.41088914'
p726
sg9
S'4081.40684114'
p727
ssS'qfMgVgNMKi8'
p728
(dp729
g5
S'3765.37281122'
p730
sg7
S'710.355475382'
p731
sg9
S'8280.36220742'
p732
ssS'qKpbtTNwXk_Ly'
p733
(dp734
g5
S'270980.658942'
p735
sg7
S'6153.38427285'
p736
sg9
S'207257.62278'
p737
ssS'cF6s51G2P47S'
p738
(dp739
g5
S'953854.625519'
p740
sg7
S'9686.30199279'
p741
sg9
S'525294.750798'
p742
ssS'7_kg7BsyyTy8'
p743
(dp744
g5
S'3133.50051756'
p745
sg7
S'947.771129853'
p746
sg9
S'16793.285735'
p747
ssS'kNoQsElQpQf_RYl'
p748
(dp749
g5
S'4989.45313648'
p750
sg7
S'1056.93438219'
p751
sg9
S'20557.5956795'
p752
ssS'cvkdwkXe8'
p753
(dp754
g5
S'1425.86035958'
p755
sg7
S'1080.68388092'
p756
sg9
S'13673.3718432'
p757
ssS'oqg9mdTD9WnS'
p758
(dp759
g5
S'3879.17006136'
p760
sg7
S'1314.3162063'
p761
sg9
S'16087.0912788'
p762
ssS'n0Wd1LVPb'
p763
(dp764
g5
S'227.850140375'
p765
sg7
S'1577.08512593'
p766
sg9
S'8208.06996737'
p767
ssS'r7Vy_BthlVa'
p768
(dp769
g5
S'491244.662267'
p770
sg7
S'4734.95414481'
p771
sg9
S'145822.04482'
p772
ssS'ntS__KSkdt'
p773
(dp774
g5
S'1642.38220439'
p775
sg7
S'816.64312825'
p776
sg9
S'8708.9471011'
p777
ssS'HRl8jtY6xwI'
p778
(dp779
g5
S'81.4105602602'
p780
sg7
S'827.485842052'
p781
sg9
S'1471.13137612'
p782
ssS'Ro3m1WbZfOyGi'
p783
(dp784
g5
S'7066310.53885'
p785
sg7
S'130127.788791'
p786
sg9
S'3652805.76283'
p787
ssS'ruQ6EDoSy7tKwr'
p788
(dp789
g5
S'2336.69527261'
p790
sg7
S'1325.64234597'
p791
sg9
S'19568.777077'
p792
ssS'kwHvh5kx1gxCsxt'
p793
(dp794
g5
S'548.762270424'
p795
sg7
S'1214.39199816'
p796
sg9
S'11494.0120286'
p797
ssS'rvmqAcBd6rBPmv'
p798
(dp799
g5
S'1550.72992064'
p800
sg7
S'1004.96703155'
p801
sg9
S'11620.6504636'
p802
ssS'pyX35IIVQv'
p803
(dp804
g5
S'723.409818011'
p805
sg7
S'1255.24428283'
p806
sg9
S'13324.9466858'
p807
ssS'kABBqs5cM25'
p808
(dp809
g5
S'16688465.4108'
p810
sg7
S'9585995.82844'
p811
sg9
S'14231546.4556'
p812
ssS'cSNLPluX9b'
p813
(dp814
g5
S'28279.8681008'
p815
sg7
S'1119.70671112'
p816
sg9
S'27661.0798672'
p817
ssS'ivohGrJy0rBBNh'
p818
(dp819
g5
S'1632.4730738'
p820
sg7
S'972.29910297'
p821
sg9
S'17853.3784726'
p822
ssS'oe2Lc97'
p823
(dp824
g5
S'111916.264194'
p825
sg7
S'6012.15360926'
p826
sg9
S'79500.8399393'
p827
ssS'qgzfcSjr2V7C7XW'
p828
(dp829
g5
S'2075.78253358'
p830
sg7
S'854.69278844'
p831
sg9
S'9372.33241186'
p832
ssS'folDdnr'
p833
(dp834
g5
S'927.663259153'
p835
sg7
S'749.638900957'
p836
sg9
S'7045.64209849'
p837
ssS'b0GiwFwd_DE6'
p838
(dp839
g5
S'93.842568227'
p840
sg7
S'875.571412166'
p841
sg9
S'2134.10455252'
p842
ssS'ntPzsU7V'
p843
(dp844
g5
S'667.160917305'
p845
sg7
S'819.667216401'
p846
sg9
S'5545.37850095'
p847
ssS'nWfN7yBL9vY'
p848
(dp849
g5
S'2751.56698552'
p850
sg7
S'970.215561207'
p851
sg9
S'15447.9401443'
p852
ssS'lidbdt'
p853
(dp854
g5
S'12054.7244412'
p855
sg7
S'2174.35501617'
p856
sg9
S'28678.4575767'
p857
ssS'qLaMChw1e'
p858
(dp859
g5
S'45.5217177315'
p860
sg7
S'4376.36076713'
p861
sg9
S'969.658067459'
p862
ssS'dFJ7PnU'
p863
(dp864
g5
S'896.472861155'
p865
sg7
S'775.394916035'
p866
sg9
S'6805.09823692'
p867
ssS'fmT904TjDcsE'
p868
(dp869
g5
S'787.17257491'
p870
sg7
S'1285.12008941'
p871
sg9
S'9900.02004323'
p872
ssS'o01Bk7QsMt4Ou7f'
p873
(dp874
g5
S'2844137.27854'
p875
sg7
S'32592.0874126'
p876
sg9
S'1421592.05741'
p877
ssS'hxhuC'
p878
(dp879
g5
S'1266.7135018'
p880
sg7
S'1181.60307186'
p881
sg9
S'14536.4573811'
p882
ssS'g_7Cf1tdhiKEw'
p883
(dp884
g5
S'2973.06777405'
p885
sg7
S'1055.14681941'
p886
sg9
S'11960.9041998'
p887
ssS'mb87K0Eu'
p888
(dp889
g5
S'2669.70711485'
p890
sg7
S'452.721398126'
p891
sg9
S'8981.49486742'
p892
ssS'g3jE7iCVr'
p893
(dp894
g5
S'1345.33490551'
p895
sg7
S'1294.80305446'
p896
sg9
S'15251.3289779'
p897
ssS'pUprG6dM1MR28N'
p898
(dp899
g5
S'1921.05696971'
p900
sg7
S'992.74303421'
p901
sg9
S'14840.598533'
p902
ssS'mIS9QmnxTykHnkS'
p903
(dp904
g5
S'439.471499023'
p905
sg7
S'1082.95564939'
p906
sg9
S'5259.93312933'
p907
ssS'bAkRNyg7Fceb'
p908
(dp909
g5
S'408.495204319'
p910
sg7
S'1243.61493114'
p911
sg9
S'8146.22667037'
p912
ssS'fa3GwVtFA4b'
p913
(dp914
g5
S'1906.98819515'
p915
sg7
S'1724.97219062'
p916
sg9
S'18197.4313749'
p917
ssS'w_JvQuPvO6_Goqs'
p918
(dp919
g5
S'2931.18205089'
p920
sg7
S'1783.8841354'
p921
sg9
S'21572.4124945'
p922
ssS'bnAa0F2Y5VRG4'
p923
(dp924
g5
S'760.344582534'
p925
sg7
S'905.031074727'
p926
sg9
S'6213.9823778'
p927
ssS'jw09IIGPHPy'
p928
(dp929
g5
S'9236.26364573'
p930
sg7
S'772.777204553'
p931
sg9
S'15220.8804643'
p932
ssS'nj4TXaS6Zkcl7X'
p933
(dp934
g5
S'478.096137889'
p935
sg7
S'893.409372504'
p936
sg9
S'6403.14060982'
p937
ssS'dX2JIpS5Wjevq'
p938
(dp939
g5
S'530.513501093'
p940
sg7
S'1453.52092555'
p941
sg9
S'10391.451971'
p942
ssS'uDoxDKkYcHtYqDP'
p943
(dp944
g5
S'3783.95683288'
p945
sg7
S'1345.37336542'
p946
sg9
S'22527.5224546'
p947
ssS'mZtJDzlu_cOra2'
p948
(dp949
g5
S'1118.80714063'
p950
sg7
S'1258.87769992'
p951
sg9
S'14566.7755'
p952
ssS'eStcdoaCX0edZEn'
p953
(dp954
g5
S'2762.93534742'
p955
sg7
S'962.55265839'
p956
sg9
S'20081.9314944'
p957
ssS'l1EluZVQ5W74Rtk'
p958
(dp959
g5
S'7074412.65852'
p960
sg7
S'196812.515066'
p961
sg9
S'3774657.73779'
p962
ssS'kBszzoYUVMl'
p963
(dp964
g5
S'2135504.37795'
p965
sg7
S'22392.2674454'
p966
sg9
S'1084181.91859'
p967
ssS'efcONMPzgk9hV_z'
p968
(dp969
g5
S'1130.24041636'
p970
sg7
S'947.899661556'
p971
sg9
S'11153.7362099'
p972
ssS'ioY8SXeZ4O'
p973
(dp974
g5
S'17366772.6589'
p975
sg7
S'12298450.4245'
p976
sg9
S'15677190.914'
p977
ssS'xRmLtYAYJ5'
p978
(dp979
g5
S'5776666.96158'
p980
sg7
S'88930.1958819'
p981
sg9
S'2885339.6221'
p982
ssS'wnkxDbh7vs'
p983
(dp984
g5
S'4979.19163876'
p985
sg7
S'979.41896562'
p986
sg9
S'16295.5177975'
p987
ssS'eXJsfS4am8'
p988
(dp989
g5
S'784.579264074'
p990
sg7
S'789.785273311'
p991
sg9
S'6722.17726611'
p992
ssS'neXKBk6SLTROsGY'
p993
(dp994
g5
S'601.931309792'
p995
sg7
S'1494.01958967'
p996
sg9
S'6181.92575511'
p997
ssS'rCjuqQvpZLHx'
p998
(dp999
g5
S'871.698703204'
p1000
sg7
S'721.101140565'
p1001
sg9
S'5869.22059571'
p1002
ssS'hXK1u_iX'
p1003
(dp1004
g5
S'1507.20223075'
p1005
sg7
S'1242.10323442'
p1006
sg9
S'13798.8682838'
p1007
ssS'hCX3ND'
p1008
(dp1009
g5
S'4158.25465359'
p1010
sg7
S'1073.75608089'
p1011
sg9
S'19017.5840239'
p1012
ssS'pcGQnQhVkvlw'
p1013
(dp1014
g5
S'4.72157460414'
p1015
sg7
S'59.9993201461'
p1016
sg9
S'10.6182361699'
p1017
ssS's3eg4rQM0hUjI5'
p1018
(dp1019
g5
S'5398.29640543'
p1020
sg7
S'1186.72190927'
p1021
sg9
S'26717.8088035'
p1022
ssS'nhcJCpQck'
p1023
(dp1024
g5
S'823.932003008'
p1025
sg7
S'863.552388639'
p1026
sg9
S'5570.33732392'
p1027
ssS'sLwlzEVoQ2fv'
p1028
(dp1029
g5
S'61.8242134316'
p1030
sg7
S'1909.5999492'
p1031
sg9
S'3565.8719176'
p1032
ssS'caLFQL2FEUZ'
p1033
(dp1034
g5
S'2231.98527283'
p1035
sg7
S'914.467159254'
p1036
sg9
S'12950.099447'
p1037
ssS'bc2JTIhYY'
p1038
(dp1039
g5
S'530.430925844'
p1040
sg7
S'1999.2618671'
p1041
sg9
S'16602.9058347'
p1042
ssS'iQUdHRtlB2aDAaa'
p1043
(dp1044
g5
S'29470.5180625'
p1045
sg7
S'1220.11215012'
p1046
sg9
S'27514.7474957'
p1047
ssS'tKjCAHusd9'
p1048
(dp1049
g5
S'1229.53562079'
p1050
sg7
S'1118.2448556'
p1051
sg9
S'18994.5865112'
p1052
ssS'qtQmgAdMbsnDNB'
p1053
(dp1054
g5
S'292725.010124'
p1055
sg7
S'8277.61252207'
p1056
sg9
S'190952.500388'
p1057
ssS'mwt9IvKkgihyVg'
p1058
(dp1059
g5
S'601.224497247'
p1060
sg7
S'1158.08166219'
p1061
sg9
S'5694.66241437'
p1062
ssS'usnrPoAY7EtidZb'
p1063
(dp1064
g5
S'1177.43101314'
p1065
sg7
S'1120.08419227'
p1066
sg9
S'14725.7348961'
p1067
ssS'll4cOgXjKVU'
p1068
(dp1069
g5
S'2286.17672812'
p1070
sg7
S'2845.93423748'
p1071
sg9
S'2307.43390609'
p1072
ssS'cKpMlHgzd5JF'
p1073
(dp1074
g5
S'208593.898434'
p1075
sg7
S'3057.02949658'
p1076
sg9
S'133322.22269'
p1077
ssS'urXbj7'
p1078
(dp1079
g5
S'343.754366976'
p1080
sg7
S'1805.67023123'
p1081
sg9
S'13407.8830718'
p1082
ssS'm_7_ghXxwtnJ'
p1083
(dp1084
g5
S'2117117.77227'
p1085
sg7
S'14716.7216312'
p1086
sg9
S'802978.965063'
p1087
ssS'vth60A9DZpITQwF'
p1088
(dp1089
g5
S'170.170442017'
p1090
sg7
S'1588.24267254'
p1091
sg9
S'5256.86943032'
p1092
ssS'JYCWB2ej5lrw'
p1093
(dp1094
g5
S'1282.11583439'
p1095
sg7
S'1048.86510252'
p1096
sg9
S'10772.1853225'
p1097
ssS'vb0ehNa03FWhOZ'
p1098
(dp1099
g5
S'84.8180019388'
p1100
sg7
S'849.987857283'
p1101
sg9
S'1790.70143959'
p1102
ssS'hFAPzG5Bmiz'
p1103
(dp1104
g5
S'138694.331607'
p1105
sg7
S'2781.97366484'
p1106
sg9
S'87696.1859933'
p1107
ssS'v3nE3bWaUq'
p1108
(dp1109
g5
S'3632.80516461'
p1110
sg7
S'1372.93768299'
p1111
sg9
S'13324.1797149'
p1112
ssS'FFGCSVhmpAbS1JS'
p1113
(dp1114
g5
S'841.7602007'
p1115
sg7
S'1018.28605037'
p1116
sg9
S'7568.32706649'
p1117
ssS'dSTN2xwatF5Txs0'
p1118
(dp1119
g5
S'839.266590211'
p1120
sg7
S'1095.71592472'
p1121
sg9
S'10509.9797799'
p1122
ssS'l2lUKGt'
p1123
(dp1124
g5
S'768.418868574'
p1125
sg7
S'1090.81158383'
p1126
sg9
S'9327.94054462'
p1127
ssS'vLip1w96w'
p1128
(dp1129
g5
S'18505.262298'
p1130
sg7
S'1996.99117982'
p1131
sg9
S'22480.1390101'
p1132
ssS'jtyblBelXcgIT85'
p1133
(dp1134
g5
S'1285.68569429'
p1135
sg7
S'700.41155196'
p1136
sg9
S'9024.95452961'
p1137
ssS'nP4Ww2qQd'
p1138
(dp1139
g5
S'1001891.19535'
p1140
sg7
S'7184.61970167'
p1141
sg9
S'328058.202049'
p1142
ssS'uJN3VC'
p1143
(dp1144
g5
S'1081.40175983'
p1145
sg7
S'731.977400053'
p1146
sg9
S'6535.66764133'
p1147
ssS'ggTTeHtNw'
p1148
(dp1149
g5
S'680.07280094'
p1150
sg7
S'1849.12048556'
p1151
sg9
S'18816.7178166'
p1152
ssS'dnzfDT5wY1k5o8'
p1153
(dp1154
g5
S'2391.54838633'
p1155
sg7
S'1131.94904034'
p1156
sg9
S'24764.4189471'
p1157
ssS'qx4t_VX'
p1158
(dp1159
g5
S'47937.6311351'
p1160
sg7
S'3283.77038904'
p1161
sg9
S'48816.6608115'
p1162
ssS'b8QbCYl'
p1163
(dp1164
g5
S'3067.84557159'
p1165
sg7
S'1096.13103624'
p1166
sg9
S'23463.9300339'
p1167
ssS'tiP6DJB7jKZYQ4K'
p1168
(dp1169
g5
S'192.776098475'
p1170
sg7
S'1968.47698092'
p1171
sg9
S'9414.69431576'
p1172
ssS'iWpBhtqZOjD_0dp'
p1173
(dp1174
g5
S'2017.43654382'
p1175
sg7
S'975.899865195'
p1176
sg9
S'20800.9226092'
p1177
ssS'x7SBHD9X1eHlJ'
p1178
(dp1179
g5
S'4244.34026365'
p1180
sg7
S'908.017354083'
p1181
sg9
S'15678.703872'
p1182
ssS'l5TUbzeWJ3Y5'
p1183
(dp1184
g5
S'1784.6323208'
p1185
sg7
S'1114.46929173'
p1186
sg9
S'10796.8328963'
p1187
ssS'hicLarOMuOlI_'
p1188
(dp1189
g5
S'329.943389064'
p1190
sg7
S'1319.92202725'
p1191
sg9
S'15952.7998401'
p1192
ssS'wFTXq0A_7dlI'
p1193
(dp1194
g5
S'1065.66374907'
p1195
sg7
S'1025.31273199'
p1196
sg9
S'11715.3764164'
p1197
ssS'xh8Csv8C'
p1198
(dp1199
g5
S'3052.85796439'
p1200
sg7
S'1011.42735532'
p1201
sg9
S'18252.902874'
p1202
ssS'kjBLh4vEyTTkaJI'
p1203
(dp1204
g5
S'1478.86594833'
p1205
sg7
S'1067.69070385'
p1206
sg9
S'13544.726546'
p1207
ssS't91GK'
p1208
(dp1209
g5
S'599859.139791'
p1210
sg7
S'12449.7385401'
p1211
sg9
S'328980.066495'
p1212
ssS'ww8iMNDT_'
p1213
(dp1214
g5
S'23326.4747974'
p1215
sg7
S'1860.69775534'
p1216
sg9
S'38881.2507583'
p1217
ssS'sCMvPIvmtBW3'
p1218
(dp1219
g5
S'183.00617329'
p1220
sg7
S'1523.1160813'
p1221
sg9
S'5913.14845583'
p1222
ssS'fzeWu51Q4QuVTla'
p1223
(dp1224
g5
S'1061.84274161'
p1225
sg7
S'927.287787072'
p1226
sg9
S'9700.30402395'
p1227
ssS'rDE4VBM1KSBgNog'
p1228
(dp1229
g5
S'190.295042446'
p1230
sg7
S'1698.66313558'
p1231
sg9
S'13043.6616951'
p1232
ssS'cMTZSE9okk6j'
p1233
(dp1234
g5
S'96.7886176342'
p1235
sg7
S'1581.68054813'
p1236
sg9
S'2326.80568306'
p1237
ssS'fo9U2QjN2t'
p1238
(dp1239
g5
S'91.7758905611'
p1240
sg7
S'404.305793367'
p1241
sg9
S'1239.86722287'
p1242
ssS'k1SRruhluiyxrCz'
p1243
(dp1244
g5
S'549538.379268'
p1245
sg7
S'10887.0122292'
p1246
sg9
S'382254.443328'
p1247
ssS'qEjqrtfo6__TzlC'
p1248
(dp1249
g5
S'1298.20925212'
p1250
sg7
S'1067.49998677'
p1251
sg9
S'14213.2998272'
p1252
ssS'xAb8zbMHstS'
p1253
(dp1254
g5
S'4028.82787797'
p1255
sg7
S'993.20474431'
p1256
sg9
S'14342.559939'
p1257
ssS'vCHJ0rxd67g4n'
p1258
(dp1259
g5
S'26530.2147412'
p1260
sg7
S'662.332056795'
p1261
sg9
S'20342.1089087'
p1262
ssS'dbIgDrjqsiBH7PT'
p1263
(dp1264
g5
S'3150.06404392'
p1265
sg7
S'1217.69860844'
p1266
sg9
S'22996.2806129'
p1267
ssS'eFkbfv5Wsu'
p1268
(dp1269
g5
S'7326.20998866'
p1270
sg7
S'963.51194284'
p1271
sg9
S'22986.5513816'
p1272
ssS'n2NtPc9V60N43pn'
p1273
(dp1274
g5
S'1383.24653072'
p1275
sg7
S'903.095861288'
p1276
sg9
S'10554.5919574'
p1277
ssS'fE28aNayZ3KZ2'
p1278
(dp1279
g5
S'3.77049630641'
p1280
sg7
S'408.010269839'
p1281
sg9
S'18.4978603475'
p1282
ssS'gKZLwiSdGbry7Bu'
p1283
(dp1284
g5
S'735.840620742'
p1285
sg7
S'863.202815119'
p1286
sg9
S'6502.27388037'
p1287
ssS'l7AyNLcqXS85hCp'
p1288
(dp1289
g5
S'1634.48517919'
p1290
sg7
S'813.105375438'
p1291
sg9
S'11433.839943'
p1292
ssS'n4FRyH4lcbEiHVM'
p1293
(dp1294
g5
S'43.2829547819'
p1295
sg7
S'1394.87821402'
p1296
sg9
S'2076.62461436'
p1297
ssS'kxjmGxSdj3tHi'
p1298
(dp1299
g5
S'3765.33855685'
p1300
sg7
S'1275.60443954'
p1301
sg9
S'16478.4194433'
p1302
ssS'jqU4TUUPEu'
p1303
(dp1304
g5
S'361.121707821'
p1305
sg7
S'1935.45257195'
p1306
sg9
S'10740.9710003'
p1307
ssS'kseppzcENc8pfy'
p1308
(dp1309
g5
S'3518.27655419'
p1310
sg7
S'994.580604676'
p1311
sg9
S'13803.8049346'
p1312
ssS'qCWDGt1jTJKy'
p1313
(dp1314
g5
S'1982.48013813'
p1315
sg7
S'1100.8026572'
p1316
sg9
S'17624.0159286'
p1317
ssS'pCMjram'
p1318
(dp1319
g5
S'219622.574634'
p1320
sg7
S'6849.39957816'
p1321
sg9
S'176754.014467'
p1322
ssS'sSUxiobquj5z'
p1323
(dp1324
g5
S'520.827763426'
p1325
sg7
S'1598.29677629'
p1326
sg9
S'12555.3476132'
p1327
ssS'czRPoHX3E_B3'
p1328
(dp1329
g5
S'1660.40449321'
p1330
sg7
S'956.048665371'
p1331
sg9
S'15013.033958'
p1332
ssS'ctt9wSzU'
p1333
(dp1334
g5
S'1228.43350333'
p1335
sg7
S'1070.82829367'
p1336
sg9
S'10555.5875263'
p1337
ssS'p7eTalN7koz'
p1338
(dp1339
g5
S'2468.61579164'
p1340
sg7
S'1037.11732575'
p1341
sg9
S'18900.2740627'
p1342
ssS'j33ihpdbJfzq'
p1343
(dp1344
g5
S'1135.39320604'
p1345
sg7
S'1207.91156783'
p1346
sg9
S'13977.4244211'
p1347
ssS'_UqnfSjiEX'
p1348
(dp1349
g5
S'308.532902816'
p1350
sg7
S'1653.72889221'
p1351
sg9
S'8976.94995726'
p1352
ssS'uPhLdbgaOUK'
p1353
(dp1354
g5
S'441.049379886'
p1355
sg7
S'1042.60086811'
p1356
sg9
S'4578.61535007'
p1357
ssS'bz1PWe6KVzo_'
p1358
(dp1359
g5
S'2906100.59561'
p1360
sg7
S'28155.8878167'
p1361
sg9
S'993921.436312'
p1362
ssS'ikiFPHMmtaGdLW'
p1363
(dp1364
g5
S'12221.2570888'
p1365
sg7
S'710.494616087'
p1366
sg9
S'20622.3825021'
p1367
ssS'k2A8t8IGuXAQg'
p1368
(dp1369
g5
S'8441.44217408'
p1370
sg7
S'822.181720029'
p1371
sg9
S'17388.6154297'
p1372
ssS'xyUJSebBNSu'
p1373
(dp1374
g5
S'129.387826076'
p1375
sg7
S'956.306588953'
p1376
sg9
S'2881.2092795'
p1377
sss.