(dp0
S'control'
p1
(dp2
S'xyYqXBEp0k'
p3
(dp4
S'unigrams'
p5
S'285.010001963'
p6
sS'bigrams'
p7
S'962.787357825'
p8
ssS'gEnjmX'
p9
(dp10
g5
S'889.95410788'
p11
sg7
S'13326.4649891'
p12
ssS'sq24HfcN3u'
p13
(dp14
g5
S'1422.14534928'
p15
sg7
S'10673.9602434'
p16
ssS'iQAEvwou6mB'
p17
(dp18
g5
S'1094.32375671'
p19
sg7
S'16976.624719'
p20
ssS'qhFO5DM8'
p21
(dp22
g5
S'724.548487944'
p23
sg7
S'6620.89437851'
p24
ssS'cD1ky1p0WKII'
p25
(dp26
g5
S'2734.64025868'
p27
sg7
S'1394.08430886'
p28
ssS'I4iWXQ_UD'
p29
(dp30
g5
S'1538.43562011'
p31
sg7
S'13105.8926217'
p32
ssS'g9_OxarnRqOAUn'
p33
(dp34
g5
S'2260.57925487'
p35
sg7
S'55181.8039846'
p36
ssS'tEiy9TJHjW3'
p37
(dp38
g5
S'846.034333991'
p39
sg7
S'20366.9980934'
p40
ssS'tFtBExRJBk'
p41
(dp42
g5
S'877.533807689'
p43
sg7
S'22536.2375536'
p44
ssS'lStXf77DFFOqMd3'
p45
(dp46
g5
S'848.020481854'
p47
sg7
S'4889.04434806'
p48
ssS'jq_clN3FEX'
p49
(dp50
g5
S'1454.34673392'
p51
sg7
S'11435.2238561'
p52
ssS'wf8lU7nil9B_'
p53
(dp54
g5
S'1639.02044541'
p55
sg7
S'11281.7896405'
p56
ssS'fFRVeo1I'
p57
(dp58
g5
S'952.172327117'
p59
sg7
S'8629.47893677'
p60
ssS'tXiQomcH64W3'
p61
(dp62
g5
S'584.790278872'
p63
sg7
S'6944.32476781'
p64
ssS'dfHWc2_qwC3NDCK'
p65
(dp66
g5
S'755.761312699'
p67
sg7
S'4569.51852283'
p68
ssS'l4LbQ_rAPqo2wp'
p69
(dp70
g5
S'11304.94702'
p71
sg7
S'53427.8512625'
p72
ssS'qhV6DmemqXKprwU'
p73
(dp74
g5
S'1212.03481188'
p75
sg7
S'31689.9129511'
p76
ssS'wVyVdyXBJi1s'
p77
(dp78
g5
S'886.483312922'
p79
sg7
S'20901.7674969'
p80
ssS'o4d_ZMCaPR669'
p81
(dp82
g5
S'986.095978228'
p83
sg7
S'9853.86782632'
p84
ssS'hfchSKPX25emwy'
p85
(dp86
g5
S'935.122689204'
p87
sg7
S'23853.4936994'
p88
ssS'ge9ua7b'
p89
(dp90
g5
S'1330.89922492'
p91
sg7
S'13310.8398825'
p92
ssS'f5ndxWrZKIE'
p93
(dp94
g5
S'1528.9819997'
p95
sg7
S'8160.66437286'
p96
ssS'q659DpeVQKNpP'
p97
(dp98
g5
S'1169.39239965'
p99
sg7
S'14057.4707412'
p100
ssS'SZVNvirefQ'
p101
(dp102
g5
S'1390.05893266'
p103
sg7
S'7151.87087516'
p104
ssS'jyzUXkRYN'
p105
(dp106
g5
S'1602.98849313'
p107
sg7
S'5965.53117685'
p108
ssS'fGlr0YAbXbu7'
p109
(dp110
g5
S'1142.95090609'
p111
sg7
S'17.9382894828'
p112
ssS'hAYtV3a'
p113
(dp114
g5
S'1258.85678477'
p115
sg7
S'10710.1267876'
p116
ssS'jNrMqx8XNTHm5K'
p117
(dp118
g5
S'1411.13457269'
p119
sg7
S'11592.4286252'
p120
ssS'g336FaT2YhXw'
p121
(dp122
g5
S'1056.85387623'
p123
sg7
S'6594.17729289'
p124
ssS'wizae58MiTmGe'
p125
(dp126
g5
S'1393.37115879'
p127
sg7
S'9622.44910241'
p128
ssS'ibTZjZXzX'
p129
(dp130
g5
S'729.938595841'
p131
sg7
S'9243.05063753'
p132
ssS'jtTIHLIvgGACAOL'
p133
(dp134
g5
S'1498.35956481'
p135
sg7
S'37523.2636658'
p136
ssS'ddpLPfmBUhE8'
p137
(dp138
g5
S'4706203.28471'
p139
sg7
S'13070194.3404'
p140
ssS'lYUYC0uJF19Ka'
p141
(dp142
g5
S'5415.33303376'
p143
sg7
S'2027.41650174'
p144
ssS'sDsjR2Vs'
p145
(dp146
g5
S'2031.70468651'
p147
sg7
S'5107.04090636'
p148
ssS'dMRTIPTVKC0FRR'
p149
(dp150
g5
S'989.420967173'
p151
sg7
S'15701.2870108'
p152
ssS'RtswG0wspvBoC'
p153
(dp154
g5
S'1942.77211061'
p155
sg7
S'6789.90840262'
p156
ssS'tNkY83vbE'
p157
(dp158
g5
S'974.24213803'
p159
sg7
S'8432.36468248'
p160
ssS'nxLPgTw2lg'
p161
(dp162
g5
S'559.046911283'
p163
sg7
S'17748.5614626'
p164
ssS'iM_uxYt'
p165
(dp166
g5
S'1586.13698835'
p167
sg7
S'5415.8546402'
p168
ssS'jVHKJGZ'
p169
(dp170
g5
S'832.394323589'
p171
sg7
S'34773.2347653'
p172
ssS'hzOAn1MqNd'
p173
(dp174
g5
S'3553.43534537'
p175
sg7
S'1930.80399851'
p176
ssS'xXLQ_F27UU8XEM'
p177
(dp178
g5
S'1357.04539521'
p179
sg7
S'8038.63190278'
p180
ssS'g4UG1YQEnmo'
p181
(dp182
g5
S'1054.104817'
p183
sg7
S'23523.8462214'
p184
ssS'uVsKRmP4jDp'
p185
(dp186
g5
S'724.087427002'
p187
sg7
S'2775.86844478'
p188
ssS'gdcPCRZS1KRaNEl'
p189
(dp190
g5
S'968.379711475'
p191
sg7
S'19223.6550978'
p192
ssS'vuXgijpIg'
p193
(dp194
g5
S'1481.19422164'
p195
sg7
S'7326.56424105'
p196
ssS'meYmBMa'
p197
(dp198
g5
S'961.733603501'
p199
sg7
S'8699.52018817'
p200
ssS'ldLp3tX6WwVoYA'
p201
(dp202
g5
S'935.439666588'
p203
sg7
S'14775.8194663'
p204
ssS'dybfWfXJkjMWp6m'
p205
(dp206
g5
S'820.778249371'
p207
sg7
S'7345.64186389'
p208
ssS'pFa_fJWIYmn26'
p209
(dp210
g5
S'1494.58871328'
p211
sg7
S'18375.6365902'
p212
ssS'rQInjjREosu'
p213
(dp214
g5
S'1251.79041696'
p215
sg7
S'10020.2442139'
p216
ssS'wykBSRFBt'
p217
(dp218
g5
S'2158.60386324'
p219
sg7
S'5953.79931265'
p220
ssS'koANc79xbaU'
p221
(dp222
g5
S'727.964219107'
p223
sg7
S'10522.5216043'
p224
ssS'hZJVerES'
p225
(dp226
g5
S'1447.22478104'
p227
sg7
S'13625.9364045'
p228
ssS'fsW5dXZGGIQEs0'
p229
(dp230
g5
S'1230.5226647'
p231
sg7
S'12377.2724491'
p232
ssS'u98bUzGHLXgXO4S'
p233
(dp234
g5
S'1095.35733914'
p235
sg7
S'23800.8618116'
p236
ssS'fAa1yL'
p237
(dp238
g5
S'551879.728579'
p239
sg7
S'6686682.51119'
p240
ssS'x5SMTJGkkeDi'
p241
(dp242
g5
S'907.76160419'
p243
sg7
S'18798.5163449'
p244
ssS'm4BlcVeCGQo'
p245
(dp246
g5
S'1474.66576227'
p247
sg7
S'20203.525421'
p248
ssS'xY_hl3ftgFJ6'
p249
(dp250
g5
S'957.935371988'
p251
sg7
S'7880.76936176'
p252
ssS'dRKq_MPXqfR3u0'
p253
(dp254
g5
S'951.396287489'
p255
sg7
S'15561.7227011'
p256
ssS'vl0z1u62IL7Ncl'
p257
(dp258
g5
S'767.243544491'
p259
sg7
S'7172.7823091'
p260
ssS'r9cvqC_bCK'
p261
(dp262
g5
S'1043.70960122'
p263
sg7
S'13274.5178086'
p264
ssS'bgfywlOA6'
p265
(dp266
g5
S'1205.64535641'
p267
sg7
S'8941.42172463'
p268
ssS'wrCJ0vrCrn5S5C'
p269
(dp270
g5
S'3112.78116742'
p271
sg7
S'19248.1065934'
p272
ssS'kJOrxGDpuWsjI'
p273
(dp274
g5
S'1712.82196922'
p275
sg7
S'8768.96304152'
p276
ssS'bRahtGwx06RIgV'
p277
(dp278
g5
S'673.267659078'
p279
sg7
S'15229.0955768'
p280
ssS'veWx'
p281
(dp282
g5
S'1666.11659486'
p283
sg7
S'6594.27079983'
p284
ssS'oKnBkyygjJeT4OZ'
p285
(dp286
g5
S'2728.74647213'
p287
sg7
S'34799.9092046'
p288
ssS'k0eeWvWBD'
p289
(dp290
g5
S'1002.62867819'
p291
sg7
S'25813.6678788'
p292
ssS'jpA80RCT8ljL9e'
p293
(dp294
g5
S'1046.51073309'
p295
sg7
S'20043.3751892'
p296
ssS'f5Q6F6wbjkS7eB'
p297
(dp298
g5
S'1167.41774933'
p299
sg7
S'12216.2703685'
p300
ssS'duTyIJwiyzO'
p301
(dp302
g5
S'893.130455492'
p303
sg7
S'9539.97386171'
p304
ssS'eEfme1LGf2z'
p305
(dp306
g5
S'9085.88129516'
p307
sg7
S'300380.415269'
p308
ssS'jfiiez8DlFjqifd'
p309
(dp310
g5
S'938.831015575'
p311
sg7
S'8789.3149728'
p312
ssS'fvSIo2aurRj'
p313
(dp314
g5
S'1463.42073192'
p315
sg7
S'16969.0349683'
p316
ssS'f2qgfAlnfxiB7qN'
p317
(dp318
g5
S'1413.11859332'
p319
sg7
S'6117.79805128'
p320
ssS'dg39qWQ0x8bYHtr'
p321
(dp322
g5
S'1137.16762467'
p323
sg7
S'17324.4866581'
p324
ssS'lkVUsvC'
p325
(dp326
g5
S'275.964092663'
p327
sg7
S'94.6325210358'
p328
ssS'h6uymsrX6mbFlh'
p329
(dp330
g5
S'1316.84428071'
p331
sg7
S'16744.0791597'
p332
ssS'qlKI02RO5'
p333
(dp334
g5
S'1297.93781786'
p335
sg7
S'8952.29777347'
p336
ssS'eHGzDKHpMI'
p337
(dp338
g5
S'4424.06847921'
p339
sg7
S'1309.690857'
p340
ssS'uYicBamGKrn'
p341
(dp342
g5
S'1006.19085748'
p343
sg7
S'12732.2790436'
p344
ssS'rrHJMC'
p345
(dp346
g5
S'1312.43979181'
p347
sg7
S'12315.5013503'
p348
ssS'rkaQSdk_xTqaz1'
p349
(dp350
g5
S'2602.92068698'
p351
sg7
S'91608.2755492'
p352
ssS'kOLV4M'
p353
(dp354
g5
S'1496.24165786'
p355
sg7
S'6159.37751019'
p356
ssS'rTAtdSKpn0ibs'
p357
(dp358
g5
S'6734.0529324'
p359
sg7
S'323657.916574'
p360
ssS'uclv3vj26Htvx'
p361
(dp362
g5
S'1157.15937134'
p363
sg7
S'19180.0105927'
p364
ssS'v5Ct2qy5iTwzgeM'
p365
(dp366
g5
S'1452.46877017'
p367
sg7
S'10717.5931723'
p368
ssS'bLGuM9uvR3Ogqo4'
p369
(dp370
g5
S'1430.61899467'
p371
sg7
S'5391.15616754'
p372
ssS'rJfaWxNGeU'
p373
(dp374
g5
S'964.851453428'
p375
sg7
S'11106.710625'
p376
ssS'k2dEdXL'
p377
(dp378
g5
S'1346.97118734'
p379
sg7
S'19949.205365'
p380
ssS'scEm_uvwbKCo8b'
p381
(dp382
g5
S'1033.42493956'
p383
sg7
S'16718.4032283'
p384
ssS'7VbnLI9dA'
p385
(dp386
g5
S'727.470918001'
p387
sg7
S'6907.89064184'
p388
ssS'o96a5AxEzogl8p'
p389
(dp390
g5
S'965.116470998'
p391
sg7
S'21039.1244504'
p392
ssS'mOELHlQ4gFwNOEt'
p393
(dp394
g5
S'270917.613483'
p395
sg7
S'3010551.47895'
p396
ssS'r6BNc5VJDHLco8D'
p397
(dp398
g5
S'1036.68112407'
p399
sg7
S'399.412302695'
p400
ssS'szH3rmr6ysC'
p401
(dp402
g5
S'777.587150573'
p403
sg7
S'9062.44393867'
p404
ssS'oHuBNnwz'
p405
(dp406
g5
S'1926.60593329'
p407
sg7
S'5099.60997344'
p408
ssS'dQVB6A9h0_KryR'
p409
(dp410
g5
S'2499.99424737'
p411
sg7
S'81122.2107594'
p412
ssS't_Q4earc4mshOH'
p413
(dp414
g5
S'741.560140591'
p415
sg7
S'7513.60611306'
p416
ssS'qq17HLnA'
p417
(dp418
g5
S'1076.70409312'
p419
sg7
S'15246.879363'
p420
ssS'xlqXUr9VIFwMh'
p421
(dp422
g5
S'841.035846509'
p423
sg7
S'3366.08461391'
p424
ssS'cHVnuIJXPd3'
p425
(dp426
g5
S'1950.39936936'
p427
sg7
S'1393.64897632'
p428
ssS'pfNV4m9ZJyKG'
p429
(dp430
g5
S'5510.2482294'
p431
sg7
S'14412.9921535'
p432
ssS'cAX9NIcworqhMwk'
p433
(dp434
g5
S'975.263475836'
p435
sg7
S'15221.7525848'
p436
ssS'd2PJ4eiYZ'
p437
(dp438
g5
S'590.137085812'
p439
sg7
S'6009.13706457'
p440
ssS'fK2wqVJGT54gvuS'
p441
(dp442
g5
S'3474.76034838'
p443
sg7
S'113106.684764'
p444
ssS'q6BmRqY8'
p445
(dp446
g5
S'1097.00690752'
p447
sg7
S'1839.30269686'
p448
ssS'lcbgxhwH'
p449
(dp450
g5
S'1556.78773356'
p451
sg7
S'6376.30314852'
p452
ssS'xw557gPj'
p453
(dp454
g5
S'907.760381813'
p455
sg7
S'14794.8658845'
p456
ssS'lqUk0B5gSO7xhrB'
p457
(dp458
g5
S'1840.25716484'
p459
sg7
S'5283.44566648'
p460
ssS'iwmsilgt0'
p461
(dp462
g5
S'863.398729893'
p463
sg7
S'17799.9972925'
p464
ssS'oiUjFDYis'
p465
(dp466
g5
S'1203.95946978'
p467
sg7
S'20662.1562192'
p468
ssS'pU4SxhlN6'
p469
(dp470
g5
S'942.547211064'
p471
sg7
S'8341.79844469'
p472
ssS'gs0oICfYwquGoVz'
p473
(dp474
g5
S'1049.30124998'
p475
sg7
S'15672.8095487'
p476
ssS'qr7E3hhIRDA'
p477
(dp478
g5
S'1218.28744046'
p479
sg7
S'19575.3622545'
p480
ssS'r5KBXKHgz4A'
p481
(dp482
g5
S'903.737633908'
p483
sg7
S'12267.3122021'
p484
ssS'ijar9VeLK4'
p485
(dp486
g5
S'1010.81893897'
p487
sg7
S'20792.0837096'
p488
ssS'brLupKkBSjAvYfj'
p489
(dp490
g5
S'1082.03670488'
p491
sg7
S'13475.5478934'
p492
ssS'o_2CP5H6tSIq'
p493
(dp494
g5
S'880.581934175'
p495
sg7
S'12709.5204085'
p496
ssS'bwYxTvd6pj'
p497
(dp498
g5
S'4050.19308508'
p499
sg7
S'9697.74971321'
p500
ssS'p4YAU5efy'
p501
(dp502
g5
S'1583.39121705'
p503
sg7
S'9025.75430051'
p504
ssS'xiVQl71NdsN'
p505
(dp506
g5
S'1121.07363948'
p507
sg7
S'30823.9317978'
p508
ssS'cksHQYVrFx'
p509
(dp510
g5
S'2053.16747449'
p511
sg7
S'2761.25041673'
p512
ssS'dSbrVC1yK1'
p513
(dp514
g5
S'1206.28321675'
p515
sg7
S'7247.16126412'
p516
ssS'bebChK7PskxB'
p517
(dp518
g5
S'135384.40013'
p519
sg7
S'3031587.69066'
p520
ssS'oWgvq_17Z'
p521
(dp522
g5
S'1071.98694498'
p523
sg7
S'9386.92392454'
p524
ssS'oFzVcyImHcHmCci'
p525
(dp526
g5
S'1074.28883929'
p527
sg7
S'10547.0557183'
p528
ssS'cVMSpkU44YuFaiO'
p529
(dp530
g5
S'1258.98888406'
p531
sg7
S'18855.471546'
p532
ssS'wvYJS'
p533
(dp534
g5
S'933.658387717'
p535
sg7
S'14454.081849'
p536
ssS'v_CYAAKqoA'
p537
(dp538
g5
S'1154.82791492'
p539
sg7
S'10283.2143235'
p540
ssS'rm8V3WUBLNPcNd'
p541
(dp542
g5
S'852.269517157'
p543
sg7
S'16824.859054'
p544
ssS'iLzKpKGGrSvlh'
p545
(dp546
g5
S'807.017333794'
p547
sg7
S'7827.77694023'
p548
ssS'rqH6uvD9RGX'
p549
(dp550
g5
S'1464.64010236'
p551
sg7
S'9206.26323786'
p552
sssS'schizophrenia'
p553
(dp554
S'jKh48a2sGpRjq9w'
p555
(dp556
g5
S'1343.99313186'
p557
sg7
S'21157.9583402'
p558
ssS'qwtg184xmOxmeMj'
p559
(dp560
g5
S'841.028293136'
p561
sg7
S'28184.1760135'
p562
ssS'leAuT8UVoh'
p563
(dp564
g5
S'1046.41192881'
p565
sg7
S'8050.89331376'
p566
ssS'eKzjEwUj0h'
p567
(dp568
g5
S'1075.6023742'
p569
sg7
S'5466.3114394'
p570
ssS'wpHaf0yStnI'
p571
(dp572
g5
S'1049.69826085'
p573
sg7
S'15911.5621932'
p574
ssS'nINcNi304N'
p575
(dp576
g5
S'1445.2947539'
p577
sg7
S'18222.1295169'
p578
ssS'xVhkxgncICyjq2G'
p579
(dp580
g5
S'1057.41088914'
p581
sg7
S'4081.40684113'
p582
ssS'qfMgVgNMKi8'
p583
(dp584
g5
S'710.355475384'
p585
sg7
S'8280.36220756'
p586
ssS'qKpbtTNwXk_Ly'
p587
(dp588
g5
S'6153.38427284'
p589
sg7
S'207257.622785'
p590
ssS'cF6s51G2P47S'
p591
(dp592
g5
S'9686.30199278'
p593
sg7
S'525294.7508'
p594
ssS'7_kg7BsyyTy8'
p595
(dp596
g5
S'947.771129851'
p597
sg7
S'16793.2857345'
p598
ssS'kNoQsElQpQf_RYl'
p599
(dp600
g5
S'1056.9343822'
p601
sg7
S'20557.5956795'
p602
ssS'cvkdwkXe8'
p603
(dp604
g5
S'1080.68388091'
p605
sg7
S'13673.3718428'
p606
ssS'oqg9mdTD9WnS'
p607
(dp608
g5
S'1314.3162063'
p609
sg7
S'16087.0912792'
p610
ssS'n0Wd1LVPb'
p611
(dp612
g5
S'1577.08512592'
p613
sg7
S'8208.06996718'
p614
ssS'r7Vy_BthlVa'
p615
(dp616
g5
S'4734.95414481'
p617
sg7
S'145822.044821'
p618
ssS'ntS__KSkdt'
p619
(dp620
g5
S'816.643128245'
p621
sg7
S'8708.94710126'
p622
ssS'HRl8jtY6xwI'
p623
(dp624
g5
S'827.485842049'
p625
sg7
S'1471.13137612'
p626
ssS'Ro3m1WbZfOyGi'
p627
(dp628
g5
S'130127.78879'
p629
sg7
S'3652805.76286'
p630
ssS'ruQ6EDoSy7tKwr'
p631
(dp632
g5
S'1325.64234598'
p633
sg7
S'19568.7770766'
p634
ssS'kwHvh5kx1gxCsxt'
p635
(dp636
g5
S'1214.39199816'
p637
sg7
S'11494.0120285'
p638
ssS'rvmqAcBd6rBPmv'
p639
(dp640
g5
S'1004.96703155'
p641
sg7
S'11620.6504639'
p642
ssS'pyX35IIVQv'
p643
(dp644
g5
S'1255.24428281'
p645
sg7
S'13324.9466862'
p646
ssS'kABBqs5cM25'
p647
(dp648
g5
S'9585995.82846'
p649
sg7
S'14231546.4559'
p650
ssS'cSNLPluX9b'
p651
(dp652
g5
S'1119.70671112'
p653
sg7
S'27661.0798669'
p654
ssS'ivohGrJy0rBBNh'
p655
(dp656
g5
S'972.299102965'
p657
sg7
S'17853.3784732'
p658
ssS'oe2Lc97'
p659
(dp660
g5
S'6012.15360923'
p661
sg7
S'79500.8399372'
p662
ssS'qgzfcSjr2V7C7XW'
p663
(dp664
g5
S'854.692788439'
p665
sg7
S'9372.33241157'
p666
ssS'folDdnr'
p667
(dp668
g5
S'749.638900959'
p669
sg7
S'7045.64209849'
p670
ssS'b0GiwFwd_DE6'
p671
(dp672
g5
S'875.571412164'
p673
sg7
S'2134.10455266'
p674
ssS'ntPzsU7V'
p675
(dp676
g5
S'819.667216401'
p677
sg7
S'5545.37850094'
p678
ssS'nWfN7yBL9vY'
p679
(dp680
g5
S'970.215561202'
p681
sg7
S'15447.9401451'
p682
ssS'lidbdt'
p683
(dp684
g5
S'2174.35501619'
p685
sg7
S'28678.457582'
p686
ssS'qLaMChw1e'
p687
(dp688
g5
S'4376.36076717'
p689
sg7
S'969.658067464'
p690
ssS'dFJ7PnU'
p691
(dp692
g5
S'775.394916035'
p693
sg7
S'6805.09823622'
p694
ssS'fmT904TjDcsE'
p695
(dp696
g5
S'1285.12008941'
p697
sg7
S'9900.02004306'
p698
ssS'o01Bk7QsMt4Ou7f'
p699
(dp700
g5
S'32592.0874128'
p701
sg7
S'1421592.0574'
p702
ssS'hxhuC'
p703
(dp704
g5
S'1181.60307186'
p705
sg7
S'14536.4573803'
p706
ssS'g_7Cf1tdhiKEw'
p707
(dp708
g5
S'1055.14681941'
p709
sg7
S'11960.9041997'
p710
ssS'mb87K0Eu'
p711
(dp712
g5
S'452.721398127'
p713
sg7
S'8981.49486733'
p714
ssS'g3jE7iCVr'
p715
(dp716
g5
S'1294.80305446'
p717
sg7
S'15251.3289777'
p718
ssS'pUprG6dM1MR28N'
p719
(dp720
g5
S'992.743034213'
p721
sg7
S'14840.5985328'
p722
ssS'mIS9QmnxTykHnkS'
p723
(dp724
g5
S'1082.95564939'
p725
sg7
S'5259.93312944'
p726
ssS'bAkRNyg7Fceb'
p727
(dp728
g5
S'1243.61493115'
p729
sg7
S'8146.22667042'
p730
ssS'fa3GwVtFA4b'
p731
(dp732
g5
S'1724.97219062'
p733
sg7
S'18197.4313744'
p734
ssS'w_JvQuPvO6_Goqs'
p735
(dp736
g5
S'1783.8841354'
p737
sg7
S'21572.4124952'
p738
ssS'bnAa0F2Y5VRG4'
p739
(dp740
g5
S'905.031074722'
p741
sg7
S'6213.98237789'
p742
ssS'jw09IIGPHPy'
p743
(dp744
g5
S'772.777204552'
p745
sg7
S'15220.8804644'
p746
ssS'nj4TXaS6Zkcl7X'
p747
(dp748
g5
S'893.409372504'
p749
sg7
S'6403.14060999'
p750
ssS'dX2JIpS5Wjevq'
p751
(dp752
g5
S'1453.52092555'
p753
sg7
S'10391.4519705'
p754
ssS'uDoxDKkYcHtYqDP'
p755
(dp756
g5
S'1345.37336542'
p757
sg7
S'22527.5224558'
p758
ssS'mZtJDzlu_cOra2'
p759
(dp760
g5
S'1258.87769993'
p761
sg7
S'14566.7755003'
p762
ssS'eStcdoaCX0edZEn'
p763
(dp764
g5
S'962.55265839'
p765
sg7
S'20081.9314952'
p766
ssS'l1EluZVQ5W74Rtk'
p767
(dp768
g5
S'196812.515066'
p769
sg7
S'3774657.73782'
p770
ssS'kBszzoYUVMl'
p771
(dp772
g5
S'22392.2674454'
p773
sg7
S'1084181.91858'
p774
ssS'efcONMPzgk9hV_z'
p775
(dp776
g5
S'947.89966156'
p777
sg7
S'11153.7362097'
p778
ssS'ioY8SXeZ4O'
p779
(dp780
g5
S'12298450.4245'
p781
sg7
S'15677190.914'
p782
ssS'xRmLtYAYJ5'
p783
(dp784
g5
S'88930.1958819'
p785
sg7
S'2885339.6221'
p786
ssS'wnkxDbh7vs'
p787
(dp788
g5
S'979.418965617'
p789
sg7
S'16295.5177975'
p790
ssS'eXJsfS4am8'
p791
(dp792
g5
S'789.785273314'
p793
sg7
S'6722.17726615'
p794
ssS'neXKBk6SLTROsGY'
p795
(dp796
g5
S'1494.01958967'
p797
sg7
S'6181.92575515'
p798
ssS'rCjuqQvpZLHx'
p799
(dp800
g5
S'721.101140566'
p801
sg7
S'5869.22059584'
p802
ssS'hXK1u_iX'
p803
(dp804
g5
S'1242.10323443'
p805
sg7
S'13798.8682831'
p806
ssS'hCX3ND'
p807
(dp808
g5
S'1073.75608089'
p809
sg7
S'19017.5840239'
p810
ssS'pcGQnQhVkvlw'
p811
(dp812
g5
S'59.9993201459'
p813
sg7
S'10.6182361699'
p814
ssS's3eg4rQM0hUjI5'
p815
(dp816
g5
S'1186.72190928'
p817
sg7
S'26717.8088048'
p818
ssS'nhcJCpQck'
p819
(dp820
g5
S'863.552388639'
p821
sg7
S'5570.33732373'
p822
ssS'sLwlzEVoQ2fv'
p823
(dp824
g5
S'1909.5999492'
p825
sg7
S'3565.8719178'
p826
ssS'caLFQL2FEUZ'
p827
(dp828
g5
S'914.467159252'
p829
sg7
S'12950.0994466'
p830
ssS'bc2JTIhYY'
p831
(dp832
g5
S'1999.26186711'
p833
sg7
S'16602.9058351'
p834
ssS'iQUdHRtlB2aDAaa'
p835
(dp836
g5
S'1220.11215012'
p837
sg7
S'27514.7474958'
p838
ssS'tKjCAHusd9'
p839
(dp840
g5
S'1118.24485561'
p841
sg7
S'18994.5865112'
p842
ssS'qtQmgAdMbsnDNB'
p843
(dp844
g5
S'8277.61252208'
p845
sg7
S'190952.500389'
p846
ssS'mwt9IvKkgihyVg'
p847
(dp848
g5
S'1158.0816622'
p849
sg7
S'5694.66241407'
p850
ssS'usnrPoAY7EtidZb'
p851
(dp852
g5
S'1120.08419227'
p853
sg7
S'14725.7348957'
p854
ssS'll4cOgXjKVU'
p855
(dp856
g5
S'2845.93423746'
p857
sg7
S'2307.43390609'
p858
ssS'cKpMlHgzd5JF'
p859
(dp860
g5
S'3057.02949655'
p861
sg7
S'133322.22269'
p862
ssS'urXbj7'
p863
(dp864
g5
S'1805.67023124'
p865
sg7
S'13407.8830716'
p866
ssS'm_7_ghXxwtnJ'
p867
(dp868
g5
S'14716.7216313'
p869
sg7
S'802978.965053'
p870
ssS'vth60A9DZpITQwF'
p871
(dp872
g5
S'1588.24267255'
p873
sg7
S'5256.86943034'
p874
ssS'JYCWB2ej5lrw'
p875
(dp876
g5
S'1048.86510252'
p877
sg7
S'10772.1853225'
p878
ssS'vb0ehNa03FWhOZ'
p879
(dp880
g5
S'849.98785728'
p881
sg7
S'1790.70143956'
p882
ssS'hFAPzG5Bmiz'
p883
(dp884
g5
S'2781.97366485'
p885
sg7
S'87696.1859967'
p886
ssS'v3nE3bWaUq'
p887
(dp888
g5
S'1372.93768298'
p889
sg7
S'13324.1797149'
p890
ssS'FFGCSVhmpAbS1JS'
p891
(dp892
g5
S'1018.28605037'
p893
sg7
S'7568.32706634'
p894
ssS'dSTN2xwatF5Txs0'
p895
(dp896
g5
S'1095.71592472'
p897
sg7
S'10509.9797804'
p898
ssS'l2lUKGt'
p899
(dp900
g5
S'1090.81158383'
p901
sg7
S'9327.94054529'
p902
ssS'vLip1w96w'
p903
(dp904
g5
S'1996.99117983'
p905
sg7
S'22480.1390096'
p906
ssS'jtyblBelXcgIT85'
p907
(dp908
g5
S'700.411551958'
p909
sg7
S'9024.95452852'
p910
ssS'nP4Ww2qQd'
p911
(dp912
g5
S'7184.61970166'
p913
sg7
S'328058.202047'
p914
ssS'uJN3VC'
p915
(dp916
g5
S'731.977400052'
p917
sg7
S'6535.66764138'
p918
ssS'ggTTeHtNw'
p919
(dp920
g5
S'1849.12048555'
p921
sg7
S'18816.717817'
p922
ssS'dnzfDT5wY1k5o8'
p923
(dp924
g5
S'1131.94904034'
p925
sg7
S'24764.4189476'
p926
ssS'qx4t_VX'
p927
(dp928
g5
S'3283.77038903'
p929
sg7
S'48816.6608117'
p930
ssS'b8QbCYl'
p931
(dp932
g5
S'1096.13103624'
p933
sg7
S'23463.9300347'
p934
ssS'tiP6DJB7jKZYQ4K'
p935
(dp936
g5
S'1968.47698093'
p937
sg7
S'9414.69431619'
p938
ssS'iWpBhtqZOjD_0dp'
p939
(dp940
g5
S'975.899865188'
p941
sg7
S'20800.9226093'
p942
ssS'x7SBHD9X1eHlJ'
p943
(dp944
g5
S'908.017354082'
p945
sg7
S'15678.7038728'
p946
ssS'l5TUbzeWJ3Y5'
p947
(dp948
g5
S'1114.46929174'
p949
sg7
S'10796.8328967'
p950
ssS'hicLarOMuOlI_'
p951
(dp952
g5
S'1319.92202726'
p953
sg7
S'15952.7998393'
p954
ssS'wFTXq0A_7dlI'
p955
(dp956
g5
S'1025.31273199'
p957
sg7
S'11715.3764172'
p958
ssS'xh8Csv8C'
p959
(dp960
g5
S'1011.42735532'
p961
sg7
S'18252.9028736'
p962
ssS'kjBLh4vEyTTkaJI'
p963
(dp964
g5
S'1067.69070385'
p965
sg7
S'13544.7265459'
p966
ssS't91GK'
p967
(dp968
g5
S'12449.7385401'
p969
sg7
S'328980.066501'
p970
ssS'ww8iMNDT_'
p971
(dp972
g5
S'1860.69775533'
p973
sg7
S'38881.2507609'
p974
ssS'sCMvPIvmtBW3'
p975
(dp976
g5
S'1523.11608131'
p977
sg7
S'5913.14845592'
p978
ssS'fzeWu51Q4QuVTla'
p979
(dp980
g5
S'927.287787074'
p981
sg7
S'9700.30402368'
p982
ssS'rDE4VBM1KSBgNog'
p983
(dp984
g5
S'1698.66313558'
p985
sg7
S'13043.6616953'
p986
ssS'cMTZSE9okk6j'
p987
(dp988
g5
S'1581.68054817'
p989
sg7
S'2326.80568309'
p990
ssS'fo9U2QjN2t'
p991
(dp992
g5
S'404.305793366'
p993
sg7
S'1239.86722288'
p994
ssS'k1SRruhluiyxrCz'
p995
(dp996
g5
S'10887.0122291'
p997
sg7
S'382254.443317'
p998
ssS'qEjqrtfo6__TzlC'
p999
(dp1000
g5
S'1067.49998677'
p1001
sg7
S'14213.2998272'
p1002
ssS'xAb8zbMHstS'
p1003
(dp1004
g5
S'993.20474431'
p1005
sg7
S'14342.5599388'
p1006
ssS'vCHJ0rxd67g4n'
p1007
(dp1008
g5
S'662.332056794'
p1009
sg7
S'20342.1089081'
p1010
ssS'dbIgDrjqsiBH7PT'
p1011
(dp1012
g5
S'1217.69860844'
p1013
sg7
S'22996.2806139'
p1014
ssS'eFkbfv5Wsu'
p1015
(dp1016
g5
S'963.511942836'
p1017
sg7
S'22986.5513779'
p1018
ssS'n2NtPc9V60N43pn'
p1019
(dp1020
g5
S'903.095861286'
p1021
sg7
S'10554.5919579'
p1022
ssS'fE28aNayZ3KZ2'
p1023
(dp1024
g5
S'408.010269838'
p1025
sg7
S'18.4978603464'
p1026
ssS'gKZLwiSdGbry7Bu'
p1027
(dp1028
g5
S'863.202815116'
p1029
sg7
S'6502.27388045'
p1030
ssS'l7AyNLcqXS85hCp'
p1031
(dp1032
g5
S'813.105375438'
p1033
sg7
S'11433.8399422'
p1034
ssS'n4FRyH4lcbEiHVM'
p1035
(dp1036
g5
S'1394.87821401'
p1037
sg7
S'2076.62461431'
p1038
ssS'kxjmGxSdj3tHi'
p1039
(dp1040
g5
S'1275.60443953'
p1041
sg7
S'16478.4194434'
p1042
ssS'jqU4TUUPEu'
p1043
(dp1044
g5
S'1935.45257195'
p1045
sg7
S'10740.9710003'
p1046
ssS'kseppzcENc8pfy'
p1047
(dp1048
g5
S'994.580604676'
p1049
sg7
S'13803.804934'
p1050
ssS'qCWDGt1jTJKy'
p1051
(dp1052
g5
S'1100.80265721'
p1053
sg7
S'17624.0159282'
p1054
ssS'pCMjram'
p1055
(dp1056
g5
S'6849.39957814'
p1057
sg7
S'176754.01447'
p1058
ssS'sSUxiobquj5z'
p1059
(dp1060
g5
S'1598.29677627'
p1061
sg7
S'12555.347613'
p1062
ssS'czRPoHX3E_B3'
p1063
(dp1064
g5
S'956.04866537'
p1065
sg7
S'15013.0339581'
p1066
ssS'ctt9wSzU'
p1067
(dp1068
g5
S'1070.82829367'
p1069
sg7
S'10555.5875265'
p1070
ssS'p7eTalN7koz'
p1071
(dp1072
g5
S'1037.11732575'
p1073
sg7
S'18900.274063'
p1074
ssS'j33ihpdbJfzq'
p1075
(dp1076
g5
S'1207.91156782'
p1077
sg7
S'13977.4244215'
p1078
ssS'_UqnfSjiEX'
p1079
(dp1080
g5
S'1653.72889221'
p1081
sg7
S'8976.94995753'
p1082
ssS'uPhLdbgaOUK'
p1083
(dp1084
g5
S'1042.60086811'
p1085
sg7
S'4578.61535009'
p1086
ssS'bz1PWe6KVzo_'
p1087
(dp1088
g5
S'28155.8878167'
p1089
sg7
S'993921.43633'
p1090
ssS'ikiFPHMmtaGdLW'
p1091
(dp1092
g5
S'710.494616087'
p1093
sg7
S'20622.3825014'
p1094
ssS'k2A8t8IGuXAQg'
p1095
(dp1096
g5
S'822.181720033'
p1097
sg7
S'17388.6154306'
p1098
ssS'xyUJSebBNSu'
p1099
(dp1100
g5
S'956.306588951'
p1101
sg7
S'2881.2092795'
p1102
sss.